target datalayout = "e-m:e-p270:32:32-p271:32:32-p272:64:64-i64:64-i128:128-f80:128-n8:16:32:64-S128"
target triple = "x86_64-pc-linux-gnu"

%struct.instr_time = type { i64 }
%struct.QueryDesc = type { i32, ptr, ptr, ptr, ptr, ptr, ptr, ptr, i32, ptr, ptr, ptr, i8, ptr }
%struct.EState = type { i32, i32, ptr, ptr, ptr, i32, ptr, ptr, ptr, ptr, ptr, ptr, ptr, ptr, ptr, ptr, i32, ptr, ptr, ptr, ptr, ptr, ptr, ptr, ptr, ptr, ptr, i64, i64, i32, i32, i8, ptr, ptr, ptr, ptr, ptr, i8, i32, i32, ptr, i32, ptr, ptr, ptr, ptr }
%struct.JitInstrumentation = type { i64, %struct.instr_time, %struct.instr_time, %struct.instr_time, %struct.instr_time, %struct.instr_time }
%struct.JitContext = type { i32, %struct.JitInstrumentation }

; Function Attrs: nounwind uwtable
define dso_local void @ExplainPrintJITSummary(ptr noundef %0, ptr noundef %1) #0 {
  %3 = alloca ptr, align 8
  %4 = alloca ptr, align 8
  %5 = alloca %struct.JitInstrumentation, align 8
  %6 = alloca i32, align 4
  store ptr %0, ptr %3, align 8
  store ptr %1, ptr %4, align 8
  call void @llvm.lifetime.start.p0(i64 48, ptr %5) #10
  call void @llvm.memset.p0.i64(ptr align 8 %5, i8 0, i64 48, i1 false)
  %7 = load ptr, ptr %4, align 8
  %8 = getelementptr inbounds nuw %struct.QueryDesc, ptr %7, i32 0, i32 10
  %9 = load ptr, ptr %8, align 8
  %10 = getelementptr inbounds nuw %struct.EState, ptr %9, i32 0, i32 41
  %11 = load i32, ptr %10, align 8
  %12 = and i32 %11, 1
  %13 = icmp ne i32 %12, 0
  br i1 %13, label %15, label %14

14:                                               ; preds = %2
  store i32 1, ptr %6, align 4
  br label %49

15:                                               ; preds = %2
  %16 = load ptr, ptr %4, align 8
  %17 = getelementptr inbounds nuw %struct.QueryDesc, ptr %16, i32 0, i32 10
  %18 = load ptr, ptr %17, align 8
  %19 = getelementptr inbounds nuw %struct.EState, ptr %18, i32 0, i32 42
  %20 = load ptr, ptr %19, align 8
  %21 = icmp ne ptr %20, null
  br i1 %21, label %22, label %29

22:                                               ; preds = %15
  %23 = load ptr, ptr %4, align 8
  %24 = getelementptr inbounds nuw %struct.QueryDesc, ptr %23, i32 0, i32 10
  %25 = load ptr, ptr %24, align 8
  %26 = getelementptr inbounds nuw %struct.EState, ptr %25, i32 0, i32 42
  %27 = load ptr, ptr %26, align 8
  %28 = getelementptr inbounds nuw %struct.JitContext, ptr %27, i32 0, i32 1
  call void @InstrJitAgg(ptr noundef %5, ptr noundef %28)
  br label %29

29:                                               ; preds = %22, %15
  %30 = load ptr, ptr %4, align 8
  %31 = getelementptr inbounds nuw %struct.QueryDesc, ptr %30, i32 0, i32 10
  %32 = load ptr, ptr %31, align 8
  %33 = getelementptr inbounds nuw %struct.EState, ptr %32, i32 0, i32 43
  %34 = load ptr, ptr %33, align 8
  %35 = icmp ne ptr %34, null
  br i1 %35, label %36, label %42

36:                                               ; preds = %29
  %37 = load ptr, ptr %4, align 8
  %38 = getelementptr inbounds nuw %struct.QueryDesc, ptr %37, i32 0, i32 10
  %39 = load ptr, ptr %38, align 8
  %40 = getelementptr inbounds nuw %struct.EState, ptr %39, i32 0, i32 43
  %41 = load ptr, ptr %40, align 8
  call void @InstrJitAgg(ptr noundef %5, ptr noundef %41)
  br label %42

42:                                               ; preds = %36, %29
  %43 = load ptr, ptr %3, align 8
  %44 = load ptr, ptr %4, align 8
  %45 = getelementptr inbounds nuw %struct.QueryDesc, ptr %44, i32 0, i32 10
  %46 = load ptr, ptr %45, align 8
  %47 = getelementptr inbounds nuw %struct.EState, ptr %46, i32 0, i32 41
  %48 = load i32, ptr %47, align 8
  call void @ExplainPrintJIT(ptr noundef %43, i32 noundef %48, ptr noundef %5)
  store i32 0, ptr %6, align 4
  br label %49

49:                                               ; preds = %42, %14
  call void @llvm.lifetime.end.p0(i64 48, ptr %5) #10
  %50 = load i32, ptr %6, align 4
  switch i32 %50, label %52 [
    i32 0, label %51
    i32 1, label %51
  ]

51:                                               ; preds = %49, %49
  ret void

52:                                               ; preds = %49
  unreachable
}