; Function Attrs: nounwind uwtable
define dso_local void @ExplainPrintJITSummary(ptr noundef captures(none) %0, ptr noundef readonly captures(none) %1) local_unnamed_addr #0 {
  %3 = alloca %struct.JitInstrumentation, align 8
  call void @llvm.lifetime.start.p0(i64 48, ptr nonnull %3) #13
  call void @llvm.memset.p0.i64(ptr noundef nonnull align 8 dereferenceable(48) %3, i8 0, i64 48, i1 false)
  %4 = getelementptr inbounds nuw i8, ptr %1, i64 80
  %5 = load ptr, ptr %4, align 8
  %6 = getelementptr inbounds nuw i8, ptr %5, i64 304
  %7 = load i32, ptr %6, align 8
  %8 = and i32 %7, 1
  %.not = icmp eq i32 %8, 0
  br i1 %.not, label %23, label %9

9:                                                ; preds = %2
  %10 = getelementptr inbounds nuw i8, ptr %5, i64 312
  %11 = load ptr, ptr %10, align 8
  %.not8 = icmp eq ptr %11, null
  br i1 %.not8, label %14, label %12

12:                                               ; preds = %9
  %13 = getelementptr inbounds nuw i8, ptr %11, i64 8
  call void @InstrJitAgg(ptr noundef nonnull %3, ptr noundef nonnull %13) #13
  %.pre = load ptr, ptr %4, align 8
  br label %14

14:                                               ; preds = %12, %9
  %15 = phi ptr [ %.pre, %12 ], [ %5, %9 ]
  %16 = getelementptr inbounds nuw i8, ptr %15, i64 320
  %17 = load ptr, ptr %16, align 8
  %.not9 = icmp eq ptr %17, null
  br i1 %.not9, label %19, label %18

18:                                               ; preds = %14
  call void @InstrJitAgg(ptr noundef nonnull %3, ptr noundef nonnull %17) #13
  %.pre10 = load ptr, ptr %4, align 8
  br label %19

19:                                               ; preds = %18, %14
  %20 = phi ptr [ %.pre10, %18 ], [ %15, %14 ]
  %21 = getelementptr inbounds nuw i8, ptr %20, i64 304
  %22 = load i32, ptr %21, align 8
  call fastcc void @ExplainPrintJIT(ptr noundef %0, i32 noundef %22, ptr noundef %3)
  br label %23

23:                                               ; preds = %2, %19
  call void @llvm.lifetime.end.p0(i64 48, ptr nonnull %3) #13
  ret void
}